target datalayout = "e-m:e-p270:32:32-p271:32:32-p272:64:64-i64:64-i128:128-f80:128-n8:16:32:64-S128"
target triple = "x86_64-pc-linux-gnu"

; Function Attrs: nounwind uwtable
define internal void @pred_dc_8(ptr noundef %0, ptr noundef %1, ptr noundef %2, i64 noundef %3, i32 noundef %4, i32 noundef %5) #0 {
  %7 = alloca ptr, align 8
  %8 = alloca ptr, align 8
  %9 = alloca ptr, align 8
  %10 = alloca i64, align 8
  %11 = alloca i32, align 4
  %12 = alloca i32, align 4
  %13 = alloca i32, align 4
  %14 = alloca i32, align 4
  %15 = alloca i32, align 4
  %16 = alloca i32, align 4
  %17 = alloca i32, align 4
  %18 = alloca ptr, align 8
  %19 = alloca ptr, align 8
  %20 = alloca ptr, align 8
  %21 = alloca i32, align 4
  %22 = alloca i32, align 4
  store ptr %0, ptr %7, align 8, !tbaa !18
  store ptr %1, ptr %8, align 8, !tbaa !18
  store ptr %2, ptr %9, align 8, !tbaa !18
  store i64 %3, ptr %10, align 8, !tbaa !20
  store i32 %4, ptr %11, align 4, !tbaa !9
  store i32 %5, ptr %12, align 4, !tbaa !9
  call void @llvm.lifetime.start.p0(i64 4, ptr %13) #6
  call void @llvm.lifetime.start.p0(i64 4, ptr %14) #6
  call void @llvm.lifetime.start.p0(i64 4, ptr %15) #6
  call void @llvm.lifetime.start.p0(i64 4, ptr %16) #6
  call void @llvm.lifetime.start.p0(i64 4, ptr %17) #6
  %23 = load i32, ptr %11, align 4, !tbaa !9
  %24 = shl i32 1, %23
  store i32 %24, ptr %17, align 4, !tbaa !9
  call void @llvm.lifetime.start.p0(i64 8, ptr %18) #6
  %25 = load ptr, ptr %7, align 8, !tbaa !18
  store ptr %25, ptr %18, align 8, !tbaa !18
  call void @llvm.lifetime.start.p0(i64 8, ptr %19) #6
  %26 = load ptr, ptr %8, align 8, !tbaa !18
  store ptr %26, ptr %19, align 8, !tbaa !18
  call void @llvm.lifetime.start.p0(i64 8, ptr %20) #6
  %27 = load ptr, ptr %9, align 8, !tbaa !18
  store ptr %27, ptr %20, align 8, !tbaa !18
  call void @llvm.lifetime.start.p0(i64 4, ptr %21) #6
  %28 = load i32, ptr %17, align 4, !tbaa !9
  store i32 %28, ptr %21, align 4, !tbaa !9
  call void @llvm.lifetime.start.p0(i64 4, ptr %22) #6
  store i32 0, ptr %13, align 4, !tbaa !9
  br label %29

29:                                               ; preds = %49, %6
  %30 = load i32, ptr %13, align 4, !tbaa !9
  %31 = load i32, ptr %17, align 4, !tbaa !9
  %32 = icmp slt i32 %30, %31
  br i1 %32, label %33, label %52

33:                                               ; preds = %29
  %34 = load ptr, ptr %20, align 8, !tbaa !18
  %35 = load i32, ptr %13, align 4, !tbaa !9
  %36 = sext i32 %35 to i64
  %37 = getelementptr inbounds i8, ptr %34, i64 %36
  %38 = load i8, ptr %37, align 1, !tbaa !28
  %39 = zext i8 %38 to i32
  %40 = load ptr, ptr %19, align 8, !tbaa !18
  %41 = load i32, ptr %13, align 4, !tbaa !9
  %42 = sext i32 %41 to i64
  %43 = getelementptr inbounds i8, ptr %40, i64 %42
  %44 = load i8, ptr %43, align 1, !tbaa !28
  %45 = zext i8 %44 to i32
  %46 = add nsw i32 %39, %45
  %47 = load i32, ptr %21, align 4, !tbaa !9
  %48 = add nsw i32 %47, %46
  store i32 %48, ptr %21, align 4, !tbaa !9
  br label %49

49:                                               ; preds = %33
  %50 = load i32, ptr %13, align 4, !tbaa !9
  %51 = add nsw i32 %50, 1
  store i32 %51, ptr %13, align 4, !tbaa !9
  br label %29, !llvm.loop !43

52:                                               ; preds = %29
  %53 = load i32, ptr %11, align 4, !tbaa !9
  %54 = add nsw i32 %53, 1
  %55 = load i32, ptr %21, align 4, !tbaa !9
  %56 = ashr i32 %55, %54
  store i32 %56, ptr %21, align 4, !tbaa !9
  %57 = load i32, ptr %21, align 4, !tbaa !9
  %58 = mul i32 %57, 16843009
  store i32 %58, ptr %22, align 4, !tbaa !9
  store i32 0, ptr %13, align 4, !tbaa !9
  br label %59

59:                                               ; preds = %83, %52
  %60 = load i32, ptr %13, align 4, !tbaa !9
  %61 = load i32, ptr %17, align 4, !tbaa !9
  %62 = icmp slt i32 %60, %61
  br i1 %62, label %63, label %86

63:                                               ; preds = %59
  store i32 0, ptr %14, align 4, !tbaa !9
  br label %64

64:                                               ; preds = %79, %63
  %65 = load i32, ptr %14, align 4, !tbaa !9
  %66 = load i32, ptr %17, align 4, !tbaa !9
  %67 = icmp slt i32 %65, %66
  br i1 %67, label %68, label %82

68:                                               ; preds = %64
  %69 = load i32, ptr %22, align 4, !tbaa !9
  %70 = load ptr, ptr %18, align 8, !tbaa !18
  %71 = load i32, ptr %14, align 4, !tbaa !9
  %72 = sext i32 %71 to i64
  %73 = load i64, ptr %10, align 8, !tbaa !20
  %74 = load i32, ptr %13, align 4, !tbaa !9
  %75 = sext i32 %74 to i64
  %76 = mul nsw i64 %73, %75
  %77 = add nsw i64 %72, %76
  %78 = getelementptr inbounds i8, ptr %70, i64 %77
  store i32 %69, ptr %78, align 1, !tbaa !28
  br label %79

79:                                               ; preds = %68
  %80 = load i32, ptr %14, align 4, !tbaa !9
  %81 = add nsw i32 %80, 4
  store i32 %81, ptr %14, align 4, !tbaa !9
  br label %64, !llvm.loop !44

82:                                               ; preds = %64
  br label %83

83:                                               ; preds = %82
  %84 = load i32, ptr %13, align 4, !tbaa !9
  %85 = add nsw i32 %84, 1
  store i32 %85, ptr %13, align 4, !tbaa !9
  br label %59, !llvm.loop !45

86:                                               ; preds = %59
  %87 = load i32, ptr %12, align 4, !tbaa !9
  %88 = icmp eq i32 %87, 0
  br i1 %88, label %89, label %169

89:                                               ; preds = %86
  %90 = load i32, ptr %17, align 4, !tbaa !9
  %91 = icmp slt i32 %90, 32
  br i1 %91, label %92, label %169

92:                                               ; preds = %89
  %93 = load ptr, ptr %20, align 8, !tbaa !18
  %94 = getelementptr inbounds i8, ptr %93, i64 0
  %95 = load i8, ptr %94, align 1, !tbaa !28
  %96 = zext i8 %95 to i32
  %97 = load i32, ptr %21, align 4, !tbaa !9
  %98 = mul nsw i32 2, %97
  %99 = add nsw i32 %96, %98
  %100 = load ptr, ptr %19, align 8, !tbaa !18
  %101 = getelementptr inbounds i8, ptr %100, i64 0
  %102 = load i8, ptr %101, align 1, !tbaa !28
  %103 = zext i8 %102 to i32
  %104 = add nsw i32 %99, %103
  %105 = add nsw i32 %104, 2
  %106 = ashr i32 %105, 2
  %107 = trunc i32 %106 to i8
  %108 = load ptr, ptr %18, align 8, !tbaa !18
  %109 = load i64, ptr %10, align 8, !tbaa !20
  %110 = mul nsw i64 %109, 0
  %111 = add nsw i64 0, %110
  %112 = getelementptr inbounds i8, ptr %108, i64 %111
  store i8 %107, ptr %112, align 1, !tbaa !28
  store i32 1, ptr %15, align 4, !tbaa !9
  br label %113

113:                                              ; preds = %137, %92
  %114 = load i32, ptr %15, align 4, !tbaa !9
  %115 = load i32, ptr %17, align 4, !tbaa !9
  %116 = icmp slt i32 %114, %115
  br i1 %116, label %117, label %140

117:                                              ; preds = %113
  %118 = load ptr, ptr %19, align 8, !tbaa !18
  %119 = load i32, ptr %15, align 4, !tbaa !9
  %120 = sext i32 %119 to i64
  %121 = getelementptr inbounds i8, ptr %118, i64 %120
  %122 = load i8, ptr %121, align 1, !tbaa !28
  %123 = zext i8 %122 to i32
  %124 = load i32, ptr %21, align 4, !tbaa !9
  %125 = mul nsw i32 3, %124
  %126 = add nsw i32 %123, %125
  %127 = add nsw i32 %126, 2
  %128 = ashr i32 %127, 2
  %129 = trunc i32 %128 to i8
  %130 = load ptr, ptr %18, align 8, !tbaa !18
  %131 = load i32, ptr %15, align 4, !tbaa !9
  %132 = sext i32 %131 to i64
  %133 = load i64, ptr %10, align 8, !tbaa !20
  %134 = mul nsw i64 %133, 0
  %135 = add nsw i64 %132, %134
  %136 = getelementptr inbounds i8, ptr %130, i64 %135
  store i8 %129, ptr %136, align 1, !tbaa !28
  br label %137

137:                                              ; preds = %117
  %138 = load i32, ptr %15, align 4, !tbaa !9
  %139 = add nsw i32 %138, 1
  store i32 %139, ptr %15, align 4, !tbaa !9
  br label %113, !llvm.loop !46

140:                                              ; preds = %113
  store i32 1, ptr %16, align 4, !tbaa !9
  br label %141

141:                                              ; preds = %165, %140
  %142 = load i32, ptr %16, align 4, !tbaa !9
  %143 = load i32, ptr %17, align 4, !tbaa !9
  %144 = icmp slt i32 %142, %143
  br i1 %144, label %145, label %168

145:                                              ; preds = %141
  %146 = load ptr, ptr %20, align 8, !tbaa !18
  %147 = load i32, ptr %16, align 4, !tbaa !9
  %148 = sext i32 %147 to i64
  %149 = getelementptr inbounds i8, ptr %146, i64 %148
  %150 = load i8, ptr %149, align 1, !tbaa !28
  %151 = zext i8 %150 to i32
  %152 = load i32, ptr %21, align 4, !tbaa !9
  %153 = mul nsw i32 3, %152
  %154 = add nsw i32 %151, %153
  %155 = add nsw i32 %154, 2
  %156 = ashr i32 %155, 2
  %157 = trunc i32 %156 to i8
  %158 = load ptr, ptr %18, align 8, !tbaa !18
  %159 = load i64, ptr %10, align 8, !tbaa !20
  %160 = load i32, ptr %16, align 4, !tbaa !9
  %161 = sext i32 %160 to i64
  %162 = mul nsw i64 %159, %161
  %163 = add nsw i64 0, %162
  %164 = getelementptr inbounds i8, ptr %158, i64 %163
  store i8 %157, ptr %164, align 1, !tbaa !28
  br label %165

165:                                              ; preds = %145
  %166 = load i32, ptr %16, align 4, !tbaa !9
  %167 = add nsw i32 %166, 1
  store i32 %167, ptr %16, align 4, !tbaa !9
  br label %141, !llvm.loop !47

168:                                              ; preds = %141
  br label %169

169:                                              ; preds = %168, %89, %86
  call void @llvm.lifetime.end.p0(i64 4, ptr %22) #6
  call void @llvm.lifetime.end.p0(i64 4, ptr %21) #6
  call void @llvm.lifetime.end.p0(i64 8, ptr %20) #6
  call void @llvm.lifetime.end.p0(i64 8, ptr %19) #6
  call void @llvm.lifetime.end.p0(i64 8, ptr %18) #6
  call void @llvm.lifetime.end.p0(i64 4, ptr %17) #6
  call void @llvm.lifetime.end.p0(i64 4, ptr %16) #6
  call void @llvm.lifetime.end.p0(i64 4, ptr %15) #6
  call void @llvm.lifetime.end.p0(i64 4, ptr %14) #6
  call void @llvm.lifetime.end.p0(i64 4, ptr %13) #6
  ret void
}