; Function Attrs: nofree norecurse nosync nounwind memory(argmem: readwrite) uwtable
define internal void @pred_dc_8(ptr noundef writeonly captures(none) %0, ptr noundef readonly captures(none) %1, ptr noundef readonly captures(none) %2, i64 noundef %3, i32 noundef %4, i32 noundef %5) #2 {
  %7 = shl nuw i32 1, %4
  %.not = icmp eq i32 %4, 31
  br i1 %.not, label %._crit_edge64, label %.lr.ph.preheader

.lr.ph.preheader:                                 ; preds = %6
  %smax = tail call i32 @llvm.smax.i32(i32 %7, i32 1)
  %wide.trip.count = zext nneg i32 %smax to i64
  br label %.lr.ph

.lr.ph:                                           ; preds = %.lr.ph.preheader, %.lr.ph
  %indvars.iv = phi i64 [ 0, %.lr.ph.preheader ], [ %indvars.iv.next, %.lr.ph ]
  %.05258 = phi i32 [ %7, %.lr.ph.preheader ], [ %15, %.lr.ph ]
  %8 = getelementptr inbounds nuw i8, ptr %2, i64 %indvars.iv
  %9 = load i8, ptr %8, align 1, !tbaa !97
  %10 = zext i8 %9 to i32
  %11 = getelementptr inbounds nuw i8, ptr %1, i64 %indvars.iv
  %12 = load i8, ptr %11, align 1, !tbaa !97
  %13 = zext i8 %12 to i32
  %14 = add i32 %.05258, %10
  %15 = add i32 %14, %13
  %indvars.iv.next = add nuw nsw i64 %indvars.iv, 1
  %exitcond.not = icmp eq i64 %indvars.iv.next, %wide.trip.count
  br i1 %exitcond.not, label %.preheader57.us.preheader, label %.lr.ph, !llvm.loop !308

.preheader57.us.preheader:                        ; preds = %.lr.ph
  %16 = add nsw i32 %4, 1
  %17 = ashr i32 %15, %16
  %18 = mul i32 %17, 16843009
  %19 = sext i32 %7 to i64
  %smax78 = tail call i32 @llvm.smax.i32(i32 %7, i32 1)
  %wide.trip.count79 = zext nneg i32 %smax78 to i64
  br label %.preheader57.us

.preheader57.us:                                  ; preds = %.preheader57.us.preheader, %._crit_edge62.us
  %indvars.iv75 = phi i64 [ 0, %.preheader57.us.preheader ], [ %indvars.iv.next76, %._crit_edge62.us ]
  %20 = mul nsw i64 %3, %indvars.iv75
  %21 = getelementptr i8, ptr %0, i64 %20
  br label %22

22:                                               ; preds = %.preheader57.us, %22
  %indvars.iv72 = phi i64 [ 0, %.preheader57.us ], [ %indvars.iv.next73, %22 ]
  %23 = getelementptr i8, ptr %21, i64 %indvars.iv72
  store i32 %18, ptr %23, align 1, !tbaa !97
  %indvars.iv.next73 = add nuw nsw i64 %indvars.iv72, 4
  %24 = icmp slt i64 %indvars.iv.next73, %19
  br i1 %24, label %22, label %._crit_edge62.us, !llvm.loop !309

._crit_edge62.us:                                 ; preds = %22
  %indvars.iv.next76 = add nuw nsw i64 %indvars.iv75, 1
  %exitcond80.not = icmp eq i64 %indvars.iv.next76, %wide.trip.count79
  br i1 %exitcond80.not, label %._crit_edge64, label %.preheader57.us, !llvm.loop !310

._crit_edge64:                                    ; preds = %._crit_edge62.us, %6
  %25 = phi i32 [ -1, %6 ], [ %17, %._crit_edge62.us ]
  %26 = icmp eq i32 %5, 0
  %27 = icmp slt i32 %7, 32
  %or.cond = and i1 %26, %27
  br i1 %or.cond, label %28, label %.loopexit

28:                                               ; preds = %._crit_edge64
  %29 = load i8, ptr %2, align 1, !tbaa !97
  %30 = zext i8 %29 to i32
  %31 = shl nsw i32 %25, 1
  %32 = load i8, ptr %1, align 1, !tbaa !97
  %33 = zext i8 %32 to i32
  %34 = add i32 %31, 2
  %35 = add i32 %34, %30
  %36 = add i32 %35, %33
  %37 = lshr i32 %36, 2
  %38 = trunc i32 %37 to i8
  store i8 %38, ptr %0, align 1, !tbaa !97
  %39 = icmp sgt i32 %7, 1
  br i1 %39, label %.lr.ph67, label %.loopexit

.lr.ph67:                                         ; preds = %28
  %40 = mul nsw i32 %25, 3
  %41 = add i32 %40, 2
  %wide.trip.count84 = zext nneg i32 %7 to i64
  br label %44

.lr.ph69:                                         ; preds = %44
  %42 = mul nsw i32 %25, 3
  %43 = add i32 %42, 2
  %wide.trip.count89 = zext nneg i32 %7 to i64
  br label %52

44:                                               ; preds = %.lr.ph67, %44
  %indvars.iv81 = phi i64 [ 1, %.lr.ph67 ], [ %indvars.iv.next82, %44 ]
  %45 = getelementptr inbounds nuw i8, ptr %1, i64 %indvars.iv81
  %46 = load i8, ptr %45, align 1, !tbaa !97
  %47 = zext i8 %46 to i32
  %48 = add i32 %41, %47
  %49 = lshr i32 %48, 2
  %50 = trunc i32 %49 to i8
  %51 = getelementptr inbounds nuw i8, ptr %0, i64 %indvars.iv81
  store i8 %50, ptr %51, align 1, !tbaa !97
  %indvars.iv.next82 = add nuw nsw i64 %indvars.iv81, 1
  %exitcond85.not = icmp eq i64 %indvars.iv.next82, %wide.trip.count84
  br i1 %exitcond85.not, label %.lr.ph69, label %44, !llvm.loop !311

52:                                               ; preds = %.lr.ph69, %52
  %indvars.iv86 = phi i64 [ 1, %.lr.ph69 ], [ %indvars.iv.next87, %52 ]
  %53 = getelementptr inbounds nuw i8, ptr %2, i64 %indvars.iv86
  %54 = load i8, ptr %53, align 1, !tbaa !97
  %55 = zext i8 %54 to i32
  %56 = add i32 %43, %55
  %57 = lshr i32 %56, 2
  %58 = trunc i32 %57 to i8
  %59 = mul nsw i64 %3, %indvars.iv86
  %60 = getelementptr inbounds i8, ptr %0, i64 %59
  store i8 %58, ptr %60, align 1, !tbaa !97
  %indvars.iv.next87 = add nuw nsw i64 %indvars.iv86, 1
  %exitcond90.not = icmp eq i64 %indvars.iv.next87, %wide.trip.count89
  br i1 %exitcond90.not, label %.loopexit, label %52, !llvm.loop !312

.loopexit:                                        ; preds = %52, %28, %._crit_edge64
  ret void
}